target datalayout = "e-m:e-p270:32:32-p271:32:32-p272:64:64-i64:64-i128:128-f80:128-n8:16:32:64-S128"
target triple = "x86_64-pc-linux-gnu"

%"class.llvm::vfs::Status" = type <{ %"class.std::__cxx11::basic_string", %"class.llvm::sys::fs::UniqueID", %"class.std::chrono::time_point", i32, i32, i64, i32, i32, i8, [7 x i8] }>
%"class.std::__cxx11::basic_string" = type { %"struct.std::__cxx11::basic_string<char>::_Alloc_hider", i64, %union.anon }
%"struct.std::__cxx11::basic_string<char>::_Alloc_hider" = type { ptr }
%union.anon = type { i64, [8 x i8] }
%"class.llvm::sys::fs::UniqueID" = type { i64, i64 }
%"class.std::chrono::time_point" = type { %"class.std::chrono::duration" }
%"class.std::chrono::duration" = type { i64 }
%"class.llvm::sys::fs::basic_file_status" = type { i64, i64, i32, i32, i32, i32, i64, i32, i32 }

; Function Attrs: mustprogress nounwind uwtable
define linkonce_odr hidden noundef i32 @_ZNK4llvm3sys2fs17basic_file_status11permissionsEv(ptr noundef nonnull align 8 dereferenceable(48) %0) #0 comdat align 2 {
  %2 = alloca ptr, align 8
  store ptr %0, ptr %2, align 8
  %3 = load ptr, ptr %2, align 8
  %4 = getelementptr inbounds nuw %"class.llvm::sys::fs::basic_file_status", ptr %3, i32 0, i32 8
  %5 = load i32, ptr %4, align 4
  ret i32 %5
}

; Function Attrs: mustprogress nounwind uwtable
define linkonce_odr hidden noundef i32 @_ZNK4llvm3sys2fs17basic_file_status4typeEv(ptr noundef nonnull align 8 dereferenceable(48) %0) #0 comdat align 2 {
  %2 = alloca ptr, align 8
  store ptr %0, ptr %2, align 8
  %3 = load ptr, ptr %2, align 8
  %4 = getelementptr inbounds nuw %"class.llvm::sys::fs::basic_file_status", ptr %3, i32 0, i32 7
  %5 = load i32, ptr %4, align 8
  ret i32 %5
}

; Function Attrs: mustprogress nounwind uwtable
define linkonce_odr hidden noundef i64 @_ZNK4llvm3sys2fs17basic_file_status7getSizeEv(ptr noundef nonnull align 8 dereferenceable(48) %0) #0 comdat align 2 {
  %2 = alloca ptr, align 8
  store ptr %0, ptr %2, align 8
  %3 = load ptr, ptr %2, align 8
  %4 = getelementptr inbounds nuw %"class.llvm::sys::fs::basic_file_status", ptr %3, i32 0, i32 6
  %5 = load i64, ptr %4, align 8
  ret i64 %5
}

; Function Attrs: mustprogress nounwind uwtable
define linkonce_odr hidden noundef i32 @_ZNK4llvm3sys2fs17basic_file_status8getGroupEv(ptr noundef nonnull align 8 dereferenceable(48) %0) #0 comdat align 2 {
  %2 = alloca ptr, align 8
  store ptr %0, ptr %2, align 8
  %3 = load ptr, ptr %2, align 8
  %4 = getelementptr inbounds nuw %"class.llvm::sys::fs::basic_file_status", ptr %3, i32 0, i32 5
  %5 = load i32, ptr %4, align 4
  ret i32 %5
}

; Function Attrs: mustprogress nounwind uwtable
define linkonce_odr hidden noundef i32 @_ZNK4llvm3sys2fs17basic_file_status7getUserEv(ptr noundef nonnull align 8 dereferenceable(48) %0) #0 comdat align 2 {
  %2 = alloca ptr, align 8
  store ptr %0, ptr %2, align 8
  %3 = load ptr, ptr %2, align 8
  %4 = getelementptr inbounds nuw %"class.llvm::sys::fs::basic_file_status", ptr %3, i32 0, i32 4
  %5 = load i32, ptr %4, align 8
  ret i32 %5
}

; Function Attrs: mustprogress nounwind uwtable
define dso_local void @_ZN4llvm3vfs6Status15copyWithNewNameERKNS_3sys2fs11file_statusERKNS_5TwineE(ptr dead_on_unwind noalias writable sret(%"class.llvm::vfs::Status") align 8 %0, ptr noundef nonnull align 8 dereferenceable(72) %1, ptr noundef nonnull align 8 dereferenceable(34) %2) #0 align 2 {
  %4 = alloca ptr, align 8
  %5 = alloca ptr, align 8
  %6 = alloca ptr, align 8
  %7 = alloca %"class.llvm::sys::fs::UniqueID", align 8
  %8 = alloca %"class.std::chrono::time_point", align 8
  store ptr %0, ptr %4, align 8
  store ptr %1, ptr %5, align 8
  store ptr %2, ptr %6, align 8
  %9 = load ptr, ptr %6, align 8
  %10 = load ptr, ptr %5, align 8
  %11 = call { i64, i64 } @_ZNK4llvm3sys2fs11file_status11getUniqueIDEv(ptr noundef nonnull align 8 dereferenceable(72) %10)
  %12 = getelementptr inbounds nuw { i64, i64 }, ptr %7, i32 0, i32 0
  %13 = extractvalue { i64, i64 } %11, 0
  store i64 %13, ptr %12, align 8
  %14 = getelementptr inbounds nuw { i64, i64 }, ptr %7, i32 0, i32 1
  %15 = extractvalue { i64, i64 } %11, 1
  store i64 %15, ptr %14, align 8
  %16 = load ptr, ptr %5, align 8
  %17 = call i64 @_ZNK4llvm3sys2fs17basic_file_status23getLastModificationTimeEv(ptr noundef nonnull align 8 dereferenceable(48) %16)
  %18 = getelementptr inbounds nuw %"class.std::chrono::time_point", ptr %8, i32 0, i32 0
  %19 = getelementptr inbounds nuw %"class.std::chrono::duration", ptr %18, i32 0, i32 0
  store i64 %17, ptr %19, align 8
  %20 = load ptr, ptr %5, align 8
  %21 = call noundef i32 @_ZNK4llvm3sys2fs17basic_file_status7getUserEv(ptr noundef nonnull align 8 dereferenceable(48) %20)
  %22 = load ptr, ptr %5, align 8
  %23 = call noundef i32 @_ZNK4llvm3sys2fs17basic_file_status8getGroupEv(ptr noundef nonnull align 8 dereferenceable(48) %22)
  %24 = load ptr, ptr %5, align 8
  %25 = call noundef i64 @_ZNK4llvm3sys2fs17basic_file_status7getSizeEv(ptr noundef nonnull align 8 dereferenceable(48) %24)
  %26 = load ptr, ptr %5, align 8
  %27 = call noundef i32 @_ZNK4llvm3sys2fs17basic_file_status4typeEv(ptr noundef nonnull align 8 dereferenceable(48) %26)
  %28 = load ptr, ptr %5, align 8
  %29 = call noundef i32 @_ZNK4llvm3sys2fs17basic_file_status11permissionsEv(ptr noundef nonnull align 8 dereferenceable(48) %28)
  %30 = getelementptr inbounds nuw { i64, i64 }, ptr %7, i32 0, i32 0
  %31 = load i64, ptr %30, align 8
  %32 = getelementptr inbounds nuw { i64, i64 }, ptr %7, i32 0, i32 1
  %33 = load i64, ptr %32, align 8
  %34 = getelementptr inbounds nuw %"class.std::chrono::time_point", ptr %8, i32 0, i32 0
  %35 = getelementptr inbounds nuw %"class.std::chrono::duration", ptr %34, i32 0, i32 0
  %36 = load i64, ptr %35, align 8
  call void @_ZN4llvm3vfs6StatusC1ERKNS_5TwineENS_3sys2fs8UniqueIDENSt6chrono10time_pointINS8_3_V212system_clockENS8_8durationIlSt5ratioILl1ELl1000000000EEEEEEjjmNS6_9file_typeENS6_5permsE(ptr noundef nonnull align 8 dereferenceable(81) %0, ptr noundef nonnull align 8 dereferenceable(34) %9, i64 %31, i64 %33, i64 %36, i32 noundef %21, i32 noundef %23, i64 noundef %25, i32 noundef %27, i32 noundef %29)
  ret void
}