; Function Attrs: mustprogress nounwind uwtable
define dso_local void @_ZN4llvm3vfs6Status15copyWithNewNameERKNS_3sys2fs11file_statusERKNS_5TwineE(ptr dead_on_unwind noalias writable sret(%"class.llvm::vfs::Status") align 8 %0, ptr noundef nonnull align 8 dereferenceable(72) %1, ptr noundef nonnull align 8 dereferenceable(34) %2) local_unnamed_addr #0 align 2 {
  %4 = tail call { i64, i64 } @_ZNK4llvm3sys2fs11file_status11getUniqueIDEv(ptr noundef nonnull align 8 dereferenceable(72) %1) #27
  %5 = extractvalue { i64, i64 } %4, 0
  %6 = extractvalue { i64, i64 } %4, 1
  %7 = tail call i64 @_ZNK4llvm3sys2fs17basic_file_status23getLastModificationTimeEv(ptr noundef nonnull align 8 dereferenceable(48) %1) #27
  %8 = getelementptr inbounds nuw i8, ptr %1, i64 24
  %9 = load i32, ptr %8, align 8
  %10 = getelementptr inbounds nuw i8, ptr %1, i64 28
  %11 = load i32, ptr %10, align 4
  %12 = getelementptr inbounds nuw i8, ptr %1, i64 32
  %13 = load i64, ptr %12, align 8
  %14 = getelementptr inbounds nuw i8, ptr %1, i64 40
  %15 = load i32, ptr %14, align 8
  %16 = getelementptr inbounds nuw i8, ptr %1, i64 44
  %17 = load i32, ptr %16, align 4
  tail call void @_ZN4llvm3vfs6StatusC1ERKNS_5TwineENS_3sys2fs8UniqueIDENSt6chrono10time_pointINS8_3_V212system_clockENS8_8durationIlSt5ratioILl1ELl1000000000EEEEEEjjmNS6_9file_typeENS6_5permsE(ptr noundef nonnull align 8 dereferenceable(81) %0, ptr noundef nonnull align 8 dereferenceable(34) %2, i64 %5, i64 %6, i64 %7, i32 noundef %9, i32 noundef %11, i64 noundef %13, i32 noundef %15, i32 noundef %17) #27
  ret void
}